target datalayout = "e-m:e-p270:32:32-p271:32:32-p272:64:64-i64:64-i128:128-f80:128-n8:16:32:64-S128"
target triple = "x86_64-pc-linux-gnu"

%struct.hvl_t = type { i64, ptr }
%union.anon.11 = type { ptr }

@.str = private unnamed_addr constant [15 x i8] c"DIMENSION_LIST\00", align 1

; Function Attrs: nounwind uwtable
define i32 @H5DSget_num_scales(i64 noundef %0, i32 noundef %1) #0 {
  %3 = alloca i32, align 4
  %4 = alloca i64, align 8
  %5 = alloca i32, align 4
  %6 = alloca i32, align 4
  %7 = alloca i64, align 8
  %8 = alloca i64, align 8
  %9 = alloca i64, align 8
  %10 = alloca i32, align 4
  %11 = alloca ptr, align 8
  %12 = alloca i32, align 4
  %13 = alloca i32, align 4
  %14 = alloca i32, align 4
  %15 = alloca i32, align 4
  %16 = alloca %union.anon.11, align 8
  %17 = alloca ptr, align 8
  store i64 %0, ptr %4, align 8, !tbaa !3
  store i32 %1, ptr %5, align 4, !tbaa !16
  call void @llvm.lifetime.start.p0(i64 4, ptr %6) #10
  call void @llvm.lifetime.start.p0(i64 8, ptr %7) #10
  call void @llvm.lifetime.start.p0(i64 8, ptr %8) #10
  store i64 -1, ptr %8, align 8, !tbaa !3
  call void @llvm.lifetime.start.p0(i64 8, ptr %9) #10
  store i64 -1, ptr %9, align 8, !tbaa !3
  call void @llvm.lifetime.start.p0(i64 4, ptr %10) #10
  call void @llvm.lifetime.start.p0(i64 8, ptr %11) #10
  store ptr null, ptr %11, align 8, !tbaa !22
  call void @llvm.lifetime.start.p0(i64 4, ptr %12) #10
  call void @llvm.lifetime.start.p0(i64 4, ptr %13) #10
  %18 = load i64, ptr %4, align 8, !tbaa !3
  %19 = call i32 @H5Iget_type(i64 noundef %18)
  store i32 %19, ptr %12, align 4, !tbaa !16
  %20 = icmp slt i32 %19, 0
  br i1 %20, label %21, label %22

21:                                               ; preds = %2
  store i32 -1, ptr %3, align 4
  store i32 1, ptr %14, align 4
  br label %151

22:                                               ; preds = %2
  %23 = load i32, ptr %12, align 4, !tbaa !16
  %24 = icmp ne i32 5, %23
  br i1 %24, label %25, label %26

25:                                               ; preds = %22
  store i32 -1, ptr %3, align 4
  store i32 1, ptr %14, align 4
  br label %151

26:                                               ; preds = %22
  %27 = load i64, ptr %4, align 8, !tbaa !3
  %28 = call i64 @H5Dget_space(i64 noundef %27)
  store i64 %28, ptr %7, align 8, !tbaa !3
  %29 = icmp slt i64 %28, 0
  br i1 %29, label %30, label %31

30:                                               ; preds = %26
  store i32 -1, ptr %3, align 4
  store i32 1, ptr %14, align 4
  br label %151

31:                                               ; preds = %26
  %32 = load i64, ptr %7, align 8, !tbaa !3
  %33 = call i32 @H5Sget_simple_extent_ndims(i64 noundef %32)
  store i32 %33, ptr %10, align 4, !tbaa !16
  %34 = icmp slt i32 %33, 0
  br i1 %34, label %35, label %36

35:                                               ; preds = %31
  br label %118

36:                                               ; preds = %31
  %37 = load i64, ptr %7, align 8, !tbaa !3
  %38 = call i32 @H5Sclose(i64 noundef %37)
  %39 = icmp slt i32 %38, 0
  br i1 %39, label %40, label %41

40:                                               ; preds = %36
  br label %118

41:                                               ; preds = %36
  %42 = load i32, ptr %5, align 4, !tbaa !16
  %43 = load i32, ptr %10, align 4, !tbaa !16
  %44 = icmp uge i32 %42, %43
  br i1 %44, label %45, label %46

45:                                               ; preds = %41
  store i32 -1, ptr %3, align 4
  store i32 1, ptr %14, align 4
  br label %151

46:                                               ; preds = %41
  %47 = load i64, ptr %4, align 8, !tbaa !3
  %48 = call i32 @H5Aexists(i64 noundef %47, ptr noundef @.str)
  store i32 %48, ptr %6, align 4, !tbaa !16
  %49 = icmp slt i32 %48, 0
  br i1 %49, label %50, label %51

50:                                               ; preds = %46
  store i32 -1, ptr %3, align 4
  store i32 1, ptr %14, align 4
  br label %151

51:                                               ; preds = %46
  %52 = load i32, ptr %6, align 4, !tbaa !16
  %53 = icmp eq i32 %52, 0
  br i1 %53, label %54, label %55

54:                                               ; preds = %51
  store i32 0, ptr %3, align 4
  store i32 1, ptr %14, align 4
  br label %151

55:                                               ; preds = %51
  %56 = load i64, ptr %4, align 8, !tbaa !3
  %57 = call i64 @H5Aopen(i64 noundef %56, ptr noundef @.str, i64 noundef 0)
  store i64 %57, ptr %9, align 8, !tbaa !3
  %58 = icmp slt i64 %57, 0
  br i1 %58, label %59, label %60

59:                                               ; preds = %55
  br label %118

60:                                               ; preds = %55
  %61 = load i64, ptr %9, align 8, !tbaa !3
  %62 = call i64 @H5Aget_type(i64 noundef %61)
  store i64 %62, ptr %8, align 8, !tbaa !3
  %63 = icmp slt i64 %62, 0
  br i1 %63, label %64, label %65

64:                                               ; preds = %60
  br label %118

65:                                               ; preds = %60
  %66 = load i64, ptr %9, align 8, !tbaa !3
  %67 = call i64 @H5Aget_space(i64 noundef %66)
  store i64 %67, ptr %7, align 8, !tbaa !3
  %68 = icmp slt i64 %67, 0
  br i1 %68, label %69, label %70

69:                                               ; preds = %65
  br label %118

70:                                               ; preds = %65
  %71 = load i32, ptr %10, align 4, !tbaa !16
  %72 = sext i32 %71 to i64
  %73 = mul i64 %72, 16
  %74 = call noalias ptr @malloc(i64 noundef %73) #11
  store ptr %74, ptr %11, align 8, !tbaa !22
  %75 = load ptr, ptr %11, align 8, !tbaa !22
  %76 = icmp eq ptr %75, null
  br i1 %76, label %77, label %78

77:                                               ; preds = %70
  br label %118

78:                                               ; preds = %70
  %79 = load i64, ptr %9, align 8, !tbaa !3
  %80 = load i64, ptr %8, align 8, !tbaa !3
  %81 = load ptr, ptr %11, align 8, !tbaa !22
  %82 = call i32 @H5Aread(i64 noundef %79, i64 noundef %80, ptr noundef %81)
  %83 = icmp slt i32 %82, 0
  br i1 %83, label %84, label %85

84:                                               ; preds = %78
  br label %118

85:                                               ; preds = %78
  %86 = load ptr, ptr %11, align 8, !tbaa !22
  %87 = load i32, ptr %5, align 4, !tbaa !16
  %88 = zext i32 %87 to i64
  %89 = getelementptr inbounds nuw %struct.hvl_t, ptr %86, i64 %88
  %90 = getelementptr inbounds nuw %struct.hvl_t, ptr %89, i32 0, i32 0
  %91 = load i64, ptr %90, align 8, !tbaa !26
  %92 = trunc i64 %91 to i32
  store i32 %92, ptr %13, align 4, !tbaa !16
  %93 = load i64, ptr %8, align 8, !tbaa !3
  %94 = load i64, ptr %7, align 8, !tbaa !3
  %95 = load ptr, ptr %11, align 8, !tbaa !22
  %96 = call i32 @H5Treclaim(i64 noundef %93, i64 noundef %94, i64 noundef 0, ptr noundef %95)
  %97 = icmp slt i32 %96, 0
  br i1 %97, label %98, label %99

98:                                               ; preds = %85
  br label %118

99:                                               ; preds = %85
  %100 = load i64, ptr %7, align 8, !tbaa !3
  %101 = call i32 @H5Sclose(i64 noundef %100)
  %102 = icmp slt i32 %101, 0
  br i1 %102, label %103, label %104

103:                                              ; preds = %99
  br label %118

104:                                              ; preds = %99
  %105 = load i64, ptr %8, align 8, !tbaa !3
  %106 = call i32 @H5Tclose(i64 noundef %105)
  %107 = icmp slt i32 %106, 0
  br i1 %107, label %108, label %109

108:                                              ; preds = %104
  br label %118

109:                                              ; preds = %104
  %110 = load i64, ptr %9, align 8, !tbaa !3
  %111 = call i32 @H5Aclose(i64 noundef %110)
  %112 = icmp slt i32 %111, 0
  br i1 %112, label %113, label %114

113:                                              ; preds = %109
  br label %118

114:                                              ; preds = %109
  %115 = load ptr, ptr %11, align 8, !tbaa !22
  call void @free(ptr noundef %115) #10
  store ptr null, ptr %11, align 8, !tbaa !22
  br label %116

116:                                              ; preds = %114
  %117 = load i32, ptr %13, align 4, !tbaa !16
  store i32 %117, ptr %3, align 4
  store i32 1, ptr %14, align 4
  br label %151

118:                                              ; preds = %113, %108, %103, %98, %84, %77, %69, %64, %59, %40, %35
  call void @llvm.lifetime.start.p0(i64 4, ptr %15) #10
  call void @llvm.lifetime.start.p0(i64 8, ptr %16) #10
  call void @llvm.lifetime.start.p0(i64 8, ptr %17) #10
  %119 = call i32 @H5Eauto_is_v2(i64 noundef 0, ptr noundef %15)
  %120 = load i32, ptr %15, align 4, !tbaa !16
  %121 = icmp ne i32 %120, 0
  br i1 %121, label %122, label %125

122:                                              ; preds = %118
  %123 = call i32 @H5Eget_auto2(i64 noundef 0, ptr noundef %16, ptr noundef %17)
  %124 = call i32 @H5Eset_auto2(i64 noundef 0, ptr noundef null, ptr noundef null)
  br label %128

125:                                              ; preds = %118
  %126 = call i32 @H5Eget_auto1(ptr noundef %16, ptr noundef %17)
  %127 = call i32 @H5Eset_auto1(ptr noundef null, ptr noundef null)
  br label %128

128:                                              ; preds = %125, %122
  %129 = load i64, ptr %7, align 8, !tbaa !3
  %130 = call i32 @H5Sclose(i64 noundef %129)
  %131 = load i64, ptr %9, align 8, !tbaa !3
  %132 = call i32 @H5Aclose(i64 noundef %131)
  %133 = load i64, ptr %8, align 8, !tbaa !3
  %134 = call i32 @H5Tclose(i64 noundef %133)
  %135 = load i32, ptr %15, align 4, !tbaa !16
  %136 = icmp ne i32 %135, 0
  br i1 %136, label %137, label %141

137:                                              ; preds = %128
  %138 = load ptr, ptr %16, align 8, !tbaa !32
  %139 = load ptr, ptr %17, align 8, !tbaa !22
  %140 = call i32 @H5Eset_auto2(i64 noundef 0, ptr noundef %138, ptr noundef %139)
  br label %145

141:                                              ; preds = %128
  %142 = load ptr, ptr %16, align 8, !tbaa !32
  %143 = load ptr, ptr %17, align 8, !tbaa !22
  %144 = call i32 @H5Eset_auto1(ptr noundef %142, ptr noundef %143)
  br label %145

145:                                              ; preds = %141, %137
  call void @llvm.lifetime.end.p0(i64 8, ptr %17) #10
  call void @llvm.lifetime.end.p0(i64 8, ptr %16) #10
  call void @llvm.lifetime.end.p0(i64 4, ptr %15) #10
  %146 = load ptr, ptr %11, align 8, !tbaa !22
  %147 = icmp ne ptr %146, null
  br i1 %147, label %148, label %150

148:                                              ; preds = %145
  %149 = load ptr, ptr %11, align 8, !tbaa !22
  call void @free(ptr noundef %149) #10
  br label %150

150:                                              ; preds = %148, %145
  store i32 -1, ptr %3, align 4
  store i32 1, ptr %14, align 4
  br label %151

151:                                              ; preds = %150, %116, %54, %50, %45, %30, %25, %21
  call void @llvm.lifetime.end.p0(i64 4, ptr %13) #10
  call void @llvm.lifetime.end.p0(i64 4, ptr %12) #10
  call void @llvm.lifetime.end.p0(i64 8, ptr %11) #10
  call void @llvm.lifetime.end.p0(i64 4, ptr %10) #10
  call void @llvm.lifetime.end.p0(i64 8, ptr %9) #10
  call void @llvm.lifetime.end.p0(i64 8, ptr %8) #10
  call void @llvm.lifetime.end.p0(i64 8, ptr %7) #10
  call void @llvm.lifetime.end.p0(i64 4, ptr %6) #10
  %152 = load i32, ptr %3, align 4
  ret i32 %152
}