; Function Attrs: nounwind uwtable
define i32 @H5DSget_num_scales(i64 noundef %0, i32 noundef %1) local_unnamed_addr #0 {
  %3 = alloca i32, align 4
  %4 = alloca %union.anon.11, align 8
  %5 = alloca ptr, align 8
  %6 = tail call i32 @H5Iget_type(i64 noundef %0) #10
  %.not = icmp eq i32 %6, 5
  br i1 %.not, label %7, label %78

7:                                                ; preds = %2
  %8 = tail call i64 @H5Dget_space(i64 noundef %0) #10
  %9 = icmp slt i64 %8, 0
  br i1 %9, label %78, label %10

10:                                               ; preds = %7
  %11 = tail call i32 @H5Sget_simple_extent_ndims(i64 noundef %8) #10
  %12 = icmp slt i32 %11, 0
  br i1 %12, label %56, label %13

13:                                               ; preds = %10
  %14 = tail call i32 @H5Sclose(i64 noundef %8) #10
  %15 = icmp slt i32 %14, 0
  br i1 %15, label %56, label %16

16:                                               ; preds = %13
  %.not48 = icmp ult i32 %1, %11
  br i1 %.not48, label %17, label %78

17:                                               ; preds = %16
  %18 = tail call i32 @H5Aexists(i64 noundef %0, ptr noundef nonnull @.str) #10
  %19 = icmp slt i32 %18, 0
  br i1 %19, label %78, label %20

20:                                               ; preds = %17
  %21 = icmp eq i32 %18, 0
  br i1 %21, label %78, label %22

22:                                               ; preds = %20
  %23 = tail call i64 @H5Aopen(i64 noundef %0, ptr noundef nonnull @.str, i64 noundef 0) #10
  %24 = icmp slt i64 %23, 0
  br i1 %24, label %56, label %25

25:                                               ; preds = %22
  %26 = tail call i64 @H5Aget_type(i64 noundef %23) #10
  %27 = icmp slt i64 %26, 0
  br i1 %27, label %56, label %28

28:                                               ; preds = %25
  %29 = tail call i64 @H5Aget_space(i64 noundef %23) #10
  %30 = icmp slt i64 %29, 0
  br i1 %30, label %56, label %31

31:                                               ; preds = %28
  %32 = zext nneg i32 %11 to i64
  %33 = shl nuw nsw i64 %32, 4
  %34 = tail call noalias ptr @malloc(i64 noundef %33) #11
  %35 = icmp eq ptr %34, null
  br i1 %35, label %56, label %36

36:                                               ; preds = %31
  %37 = tail call i32 @H5Aread(i64 noundef %23, i64 noundef %26, ptr noundef nonnull %34) #10
  %38 = icmp slt i32 %37, 0
  br i1 %38, label %56, label %39

39:                                               ; preds = %36
  %40 = zext nneg i32 %1 to i64
  %41 = getelementptr inbounds nuw %struct.hvl_t, ptr %34, i64 %40
  %42 = load i64, ptr %41, align 8, !tbaa !18
  %43 = trunc i64 %42 to i32
  %44 = tail call i32 @H5Treclaim(i64 noundef %26, i64 noundef %29, i64 noundef 0, ptr noundef nonnull %34) #10
  %45 = icmp slt i32 %44, 0
  br i1 %45, label %56, label %46

46:                                               ; preds = %39
  %47 = tail call i32 @H5Sclose(i64 noundef %29) #10
  %48 = icmp slt i32 %47, 0
  br i1 %48, label %56, label %49

49:                                               ; preds = %46
  %50 = tail call i32 @H5Tclose(i64 noundef %26) #10
  %51 = icmp slt i32 %50, 0
  br i1 %51, label %56, label %52

52:                                               ; preds = %49
  %53 = tail call i32 @H5Aclose(i64 noundef %23) #10
  %54 = icmp slt i32 %53, 0
  br i1 %54, label %56, label %55

55:                                               ; preds = %52
  tail call void @free(ptr noundef nonnull %34) #10
  br label %78

56:                                               ; preds = %52, %49, %46, %39, %36, %31, %28, %25, %22, %13, %10
  %.035 = phi i64 [ -1, %10 ], [ -1, %13 ], [ %23, %22 ], [ %23, %25 ], [ %23, %28 ], [ %23, %31 ], [ %23, %36 ], [ %23, %39 ], [ %23, %46 ], [ %23, %49 ], [ %23, %52 ]
  %.034 = phi i64 [ -1, %10 ], [ -1, %13 ], [ -1, %22 ], [ %26, %25 ], [ %26, %28 ], [ %26, %31 ], [ %26, %36 ], [ %26, %39 ], [ %26, %46 ], [ %26, %49 ], [ %26, %52 ]
  %.033 = phi ptr [ null, %10 ], [ null, %13 ], [ null, %22 ], [ null, %25 ], [ null, %28 ], [ null, %31 ], [ %34, %36 ], [ %34, %39 ], [ %34, %46 ], [ %34, %49 ], [ %34, %52 ]
  %.032 = phi i64 [ %8, %10 ], [ %8, %13 ], [ %8, %22 ], [ %8, %25 ], [ %29, %28 ], [ %29, %31 ], [ %29, %36 ], [ %29, %39 ], [ %29, %46 ], [ %29, %49 ], [ %29, %52 ]
  call void @llvm.lifetime.start.p0(i64 4, ptr nonnull %3) #10
  call void @llvm.lifetime.start.p0(i64 8, ptr nonnull %4) #10
  call void @llvm.lifetime.start.p0(i64 8, ptr nonnull %5) #10
  %57 = call i32 @H5Eauto_is_v2(i64 noundef 0, ptr noundef nonnull %3) #10
  %58 = load i32, ptr %3, align 4, !tbaa !14
  %.not49 = icmp eq i32 %58, 0
  br i1 %.not49, label %62, label %59

59:                                               ; preds = %56
  %60 = call i32 @H5Eget_auto2(i64 noundef 0, ptr noundef nonnull %4, ptr noundef nonnull %5) #10
  %61 = call i32 @H5Eset_auto2(i64 noundef 0, ptr noundef null, ptr noundef null) #10
  br label %65

62:                                               ; preds = %56
  %63 = call i32 @H5Eget_auto1(ptr noundef nonnull %4, ptr noundef nonnull %5) #10
  %64 = call i32 @H5Eset_auto1(ptr noundef null, ptr noundef null) #10
  br label %65

65:                                               ; preds = %62, %59
  %66 = call i32 @H5Sclose(i64 noundef %.032) #10
  %67 = call i32 @H5Aclose(i64 noundef %.035) #10
  %68 = call i32 @H5Tclose(i64 noundef %.034) #10
  %69 = load i32, ptr %3, align 4, !tbaa !14
  %.not50 = icmp eq i32 %69, 0
  %70 = load ptr, ptr %4, align 8, !tbaa !17
  %71 = load ptr, ptr %5, align 8, !tbaa !33
  br i1 %.not50, label %74, label %72

72:                                               ; preds = %65
  %73 = call i32 @H5Eset_auto2(i64 noundef 0, ptr noundef %70, ptr noundef %71) #10
  br label %76

74:                                               ; preds = %65
  %75 = call i32 @H5Eset_auto1(ptr noundef %70, ptr noundef %71) #10
  br label %76

76:                                               ; preds = %74, %72
  call void @llvm.lifetime.end.p0(i64 8, ptr nonnull %5) #10
  call void @llvm.lifetime.end.p0(i64 8, ptr nonnull %4) #10
  call void @llvm.lifetime.end.p0(i64 4, ptr nonnull %3) #10
  %.not51 = icmp eq ptr %.033, null
  br i1 %.not51, label %78, label %77

77:                                               ; preds = %76
  call void @free(ptr noundef nonnull %.033) #10
  br label %78

78:                                               ; preds = %76, %77, %20, %17, %16, %7, %2, %55
  %.0 = phi i32 [ %43, %55 ], [ -1, %2 ], [ -1, %7 ], [ -1, %16 ], [ -1, %17 ], [ 0, %20 ], [ -1, %77 ], [ -1, %76 ]
  ret i32 %.0
}